target datalayout = "e-m:e-p270:32:32-p271:32:32-p272:64:64-i64:64-i128:128-f80:128-n8:16:32:64-S128"
target triple = "x86_64-pc-linux-gnu"

%struct.regexp_matches_ctx = type { ptr, i32, i32, ptr, i32, ptr, ptr, ptr, ptr, i32 }

; Function Attrs: inlinehint nounwind uwtable
define internal i64 @Int32GetDatum(i32 noundef %0) #6 {
  %2 = alloca i32, align 4
  store i32 %0, ptr %2, align 4
  %3 = load i32, ptr %2, align 4
  %4 = sext i32 %3 to i64
  ret i64 %4
}

; Function Attrs: inlinehint nounwind uwtable
define internal i64 @PointerGetDatum(ptr noundef %0) #6 {
  %2 = alloca ptr, align 8
  store ptr %0, ptr %2, align 8
  %3 = load ptr, ptr %2, align 8
  %4 = ptrtoint ptr %3 to i64
  ret i64 %4
}

; Function Attrs: nounwind uwtable
define internal ptr @build_regexp_match_result(ptr noundef %0) #0 {
  %2 = alloca ptr, align 8
  %3 = alloca ptr, align 8
  %4 = alloca ptr, align 8
  %5 = alloca ptr, align 8
  %6 = alloca [1 x i32], align 4
  %7 = alloca [1 x i32], align 4
  %8 = alloca i32, align 4
  %9 = alloca i32, align 4
  %10 = alloca i32, align 4
  %11 = alloca i32, align 4
  %12 = alloca i32, align 4
  store ptr %0, ptr %2, align 8
  call void @llvm.lifetime.start.p0(i64 8, ptr %3) #8
  %13 = load ptr, ptr %2, align 8
  %14 = getelementptr inbounds nuw %struct.regexp_matches_ctx, ptr %13, i32 0, i32 8
  %15 = load ptr, ptr %14, align 8
  store ptr %15, ptr %3, align 8
  call void @llvm.lifetime.start.p0(i64 8, ptr %4) #8
  %16 = load ptr, ptr %2, align 8
  %17 = getelementptr inbounds nuw %struct.regexp_matches_ctx, ptr %16, i32 0, i32 5
  %18 = load ptr, ptr %17, align 8
  store ptr %18, ptr %4, align 8
  call void @llvm.lifetime.start.p0(i64 8, ptr %5) #8
  %19 = load ptr, ptr %2, align 8
  %20 = getelementptr inbounds nuw %struct.regexp_matches_ctx, ptr %19, i32 0, i32 6
  %21 = load ptr, ptr %20, align 8
  store ptr %21, ptr %5, align 8
  call void @llvm.lifetime.start.p0(i64 4, ptr %6) #8
  call void @llvm.lifetime.start.p0(i64 4, ptr %7) #8
  call void @llvm.lifetime.start.p0(i64 4, ptr %8) #8
  call void @llvm.lifetime.start.p0(i64 4, ptr %9) #8
  %22 = load ptr, ptr %2, align 8
  %23 = getelementptr inbounds nuw %struct.regexp_matches_ctx, ptr %22, i32 0, i32 4
  %24 = load i32, ptr %23, align 8
  %25 = load ptr, ptr %2, align 8
  %26 = getelementptr inbounds nuw %struct.regexp_matches_ctx, ptr %25, i32 0, i32 2
  %27 = load i32, ptr %26, align 4
  %28 = mul i32 %24, %27
  %29 = mul i32 %28, 2
  store i32 %29, ptr %8, align 4
  store i32 0, ptr %9, align 4
  br label %30

30:                                               ; preds = %117, %1
  %31 = load i32, ptr %9, align 4
  %32 = load ptr, ptr %2, align 8
  %33 = getelementptr inbounds nuw %struct.regexp_matches_ctx, ptr %32, i32 0, i32 2
  %34 = load i32, ptr %33, align 4
  %35 = icmp slt i32 %31, %34
  br i1 %35, label %36, label %120

36:                                               ; preds = %30
  call void @llvm.lifetime.start.p0(i64 4, ptr %10) #8
  %37 = load ptr, ptr %2, align 8
  %38 = getelementptr inbounds nuw %struct.regexp_matches_ctx, ptr %37, i32 0, i32 3
  %39 = load ptr, ptr %38, align 8
  %40 = load i32, ptr %8, align 4
  %41 = add i32 %40, 1
  store i32 %41, ptr %8, align 4
  %42 = sext i32 %40 to i64
  %43 = getelementptr inbounds i32, ptr %39, i64 %42
  %44 = load i32, ptr %43, align 4
  store i32 %44, ptr %10, align 4
  call void @llvm.lifetime.start.p0(i64 4, ptr %11) #8
  %45 = load ptr, ptr %2, align 8
  %46 = getelementptr inbounds nuw %struct.regexp_matches_ctx, ptr %45, i32 0, i32 3
  %47 = load ptr, ptr %46, align 8
  %48 = load i32, ptr %8, align 4
  %49 = add i32 %48, 1
  store i32 %49, ptr %8, align 4
  %50 = sext i32 %48 to i64
  %51 = getelementptr inbounds i32, ptr %47, i64 %50
  %52 = load i32, ptr %51, align 4
  store i32 %52, ptr %11, align 4
  %53 = load i32, ptr %10, align 4
  %54 = icmp slt i32 %53, 0
  br i1 %54, label %58, label %55

55:                                               ; preds = %36
  %56 = load i32, ptr %11, align 4
  %57 = icmp slt i32 %56, 0
  br i1 %57, label %58, label %67

58:                                               ; preds = %55, %36
  %59 = load ptr, ptr %4, align 8
  %60 = load i32, ptr %9, align 4
  %61 = sext i32 %60 to i64
  %62 = getelementptr inbounds i64, ptr %59, i64 %61
  store i64 0, ptr %62, align 8
  %63 = load ptr, ptr %5, align 8
  %64 = load i32, ptr %9, align 4
  %65 = sext i32 %64 to i64
  %66 = getelementptr inbounds i8, ptr %63, i64 %65
  store i8 1, ptr %66, align 1
  br label %116

67:                                               ; preds = %55
  %68 = load ptr, ptr %3, align 8
  %69 = icmp ne ptr %68, null
  br i1 %69, label %70, label %94

70:                                               ; preds = %67
  call void @llvm.lifetime.start.p0(i64 4, ptr %12) #8
  %71 = load ptr, ptr %2, align 8
  %72 = getelementptr inbounds nuw %struct.regexp_matches_ctx, ptr %71, i32 0, i32 7
  %73 = load ptr, ptr %72, align 8
  %74 = load i32, ptr %10, align 4
  %75 = sext i32 %74 to i64
  %76 = getelementptr inbounds i32, ptr %73, i64 %75
  %77 = load ptr, ptr %3, align 8
  %78 = load i32, ptr %11, align 4
  %79 = load i32, ptr %10, align 4
  %80 = sub i32 %78, %79
  %81 = call i32 @pg_wchar2mb_with_len(ptr noundef %76, ptr noundef %77, i32 noundef %80)
  store i32 %81, ptr %12, align 4
  %82 = load ptr, ptr %3, align 8
  %83 = load i32, ptr %12, align 4
  %84 = call ptr @cstring_to_text_with_len(ptr noundef %82, i32 noundef %83)
  %85 = call i64 @PointerGetDatum(ptr noundef %84)
  %86 = load ptr, ptr %4, align 8
  %87 = load i32, ptr %9, align 4
  %88 = sext i32 %87 to i64
  %89 = getelementptr inbounds i64, ptr %86, i64 %88
  store i64 %85, ptr %89, align 8
  %90 = load ptr, ptr %5, align 8
  %91 = load i32, ptr %9, align 4
  %92 = sext i32 %91 to i64
  %93 = getelementptr inbounds i8, ptr %90, i64 %92
  store i8 0, ptr %93, align 1
  call void @llvm.lifetime.end.p0(i64 4, ptr %12) #8
  br label %115

94:                                               ; preds = %67
  %95 = load ptr, ptr %2, align 8
  %96 = getelementptr inbounds nuw %struct.regexp_matches_ctx, ptr %95, i32 0, i32 0
  %97 = load ptr, ptr %96, align 8
  %98 = call i64 @PointerGetDatum(ptr noundef %97)
  %99 = load i32, ptr %10, align 4
  %100 = add i32 %99, 1
  %101 = call i64 @Int32GetDatum(i32 noundef %100)
  %102 = load i32, ptr %11, align 4
  %103 = load i32, ptr %10, align 4
  %104 = sub i32 %102, %103
  %105 = call i64 @Int32GetDatum(i32 noundef %104)
  %106 = call i64 @DirectFunctionCall3Coll(ptr noundef @text_substr, i32 noundef 0, i64 noundef %98, i64 noundef %101, i64 noundef %105)
  %107 = load ptr, ptr %4, align 8
  %108 = load i32, ptr %9, align 4
  %109 = sext i32 %108 to i64
  %110 = getelementptr inbounds i64, ptr %107, i64 %109
  store i64 %106, ptr %110, align 8
  %111 = load ptr, ptr %5, align 8
  %112 = load i32, ptr %9, align 4
  %113 = sext i32 %112 to i64
  %114 = getelementptr inbounds i8, ptr %111, i64 %113
  store i8 0, ptr %114, align 1
  br label %115

115:                                              ; preds = %94, %70
  br label %116

116:                                              ; preds = %115, %58
  call void @llvm.lifetime.end.p0(i64 4, ptr %11) #8
  call void @llvm.lifetime.end.p0(i64 4, ptr %10) #8
  br label %117

117:                                              ; preds = %116
  %118 = load i32, ptr %9, align 4
  %119 = add i32 %118, 1
  store i32 %119, ptr %9, align 4
  br label %30, !llvm.loop !13

120:                                              ; preds = %30
  %121 = load ptr, ptr %2, align 8
  %122 = getelementptr inbounds nuw %struct.regexp_matches_ctx, ptr %121, i32 0, i32 2
  %123 = load i32, ptr %122, align 4
  %124 = getelementptr inbounds [1 x i32], ptr %6, i64 0, i64 0
  store i32 %123, ptr %124, align 4
  %125 = getelementptr inbounds [1 x i32], ptr %7, i64 0, i64 0
  store i32 1, ptr %125, align 4
  %126 = load ptr, ptr %4, align 8
  %127 = load ptr, ptr %5, align 8
  %128 = getelementptr inbounds [1 x i32], ptr %6, i64 0, i64 0
  %129 = getelementptr inbounds [1 x i32], ptr %7, i64 0, i64 0
  %130 = call ptr @construct_md_array(ptr noundef %126, ptr noundef %127, i32 noundef 1, ptr noundef %128, ptr noundef %129, i32 noundef 25, i32 noundef -1, i1 noundef zeroext false, i8 noundef signext 105)
  call void @llvm.lifetime.end.p0(i64 4, ptr %9) #8
  call void @llvm.lifetime.end.p0(i64 4, ptr %8) #8
  call void @llvm.lifetime.end.p0(i64 4, ptr %7) #8
  call void @llvm.lifetime.end.p0(i64 4, ptr %6) #8
  call void @llvm.lifetime.end.p0(i64 8, ptr %5) #8
  call void @llvm.lifetime.end.p0(i64 8, ptr %4) #8
  call void @llvm.lifetime.end.p0(i64 8, ptr %3) #8
  ret ptr %130
}