; Function Attrs: nounwind uwtable
define internal fastcc ptr @build_regexp_match_result(ptr noundef readonly captures(none) %0) unnamed_addr #0 {
  %2 = alloca [1 x i32], align 4
  %3 = alloca [1 x i32], align 4
  %4 = getelementptr inbounds nuw i8, ptr %0, i64 56
  %5 = load ptr, ptr %4, align 8
  %.fr = freeze ptr %5
  %6 = getelementptr inbounds nuw i8, ptr %0, i64 32
  %7 = load ptr, ptr %6, align 8
  %8 = getelementptr inbounds nuw i8, ptr %0, i64 40
  %9 = load ptr, ptr %8, align 8
  call void @llvm.lifetime.start.p0(i64 4, ptr nonnull %2) #9
  call void @llvm.lifetime.start.p0(i64 4, ptr nonnull %3) #9
  %10 = getelementptr inbounds nuw i8, ptr %0, i64 12
  %11 = load i32, ptr %10, align 4
  %12 = icmp sgt i32 %11, 0
  br i1 %12, label %.lr.ph, label %._crit_edge

.lr.ph:                                           ; preds = %1
  %13 = getelementptr inbounds nuw i8, ptr %0, i64 24
  %14 = load i32, ptr %13, align 8
  %15 = shl i32 %14, 1
  %16 = mul i32 %15, %11
  %17 = getelementptr inbounds nuw i8, ptr %0, i64 16
  %.not = icmp eq ptr %.fr, null
  %18 = getelementptr inbounds nuw i8, ptr %0, i64 48
  br i1 %.not, label %.lr.ph.split.us, label %.lr.ph.split

.lr.ph.split.us:                                  ; preds = %.lr.ph, %38
  %indvars.iv52 = phi i64 [ %indvars.iv.next53, %38 ], [ 0, %.lr.ph ]
  %.047.us = phi i32 [ %24, %38 ], [ %16, %.lr.ph ]
  %19 = load ptr, ptr %17, align 8
  %20 = or disjoint i32 %.047.us, 1
  %21 = sext i32 %.047.us to i64
  %22 = getelementptr inbounds i32, ptr %19, i64 %21
  %23 = load i32, ptr %22, align 4
  %24 = add i32 %.047.us, 2
  %25 = sext i32 %20 to i64
  %26 = getelementptr inbounds i32, ptr %19, i64 %25
  %27 = load i32, ptr %26, align 4
  %28 = icmp slt i32 %23, 0
  %29 = icmp slt i32 %27, 0
  %or.cond.us = select i1 %28, i1 true, i1 %29
  br i1 %or.cond.us, label %38, label %30

30:                                               ; preds = %.lr.ph.split.us
  %31 = load ptr, ptr %0, align 8
  %32 = ptrtoint ptr %31 to i64
  %33 = add nuw i32 %23, 1
  %34 = sext i32 %33 to i64
  %35 = sub nsw i32 %27, %23
  %36 = sext i32 %35 to i64
  %37 = tail call i64 @DirectFunctionCall3Coll(ptr noundef nonnull @text_substr, i32 noundef 0, i64 noundef %32, i64 noundef %34, i64 noundef %36) #9
  br label %38

38:                                               ; preds = %.lr.ph.split.us, %30
  %.sink55 = phi i64 [ %37, %30 ], [ 0, %.lr.ph.split.us ]
  %.sink = phi i8 [ 0, %30 ], [ 1, %.lr.ph.split.us ]
  %39 = getelementptr inbounds nuw i64, ptr %7, i64 %indvars.iv52
  store i64 %.sink55, ptr %39, align 8
  %40 = getelementptr inbounds nuw i8, ptr %9, i64 %indvars.iv52
  store i8 %.sink, ptr %40, align 1
  %indvars.iv.next53 = add nuw nsw i64 %indvars.iv52, 1
  %41 = load i32, ptr %10, align 4
  %42 = sext i32 %41 to i64
  %43 = icmp slt i64 %indvars.iv.next53, %42
  br i1 %43, label %.lr.ph.split.us, label %._crit_edge, !llvm.loop !13

.lr.ph.split:                                     ; preds = %.lr.ph, %63
  %indvars.iv = phi i64 [ %indvars.iv.next, %63 ], [ 0, %.lr.ph ]
  %.047 = phi i32 [ %49, %63 ], [ %16, %.lr.ph ]
  %44 = load ptr, ptr %17, align 8
  %45 = or disjoint i32 %.047, 1
  %46 = sext i32 %.047 to i64
  %47 = getelementptr inbounds i32, ptr %44, i64 %46
  %48 = load i32, ptr %47, align 4
  %49 = add i32 %.047, 2
  %50 = sext i32 %45 to i64
  %51 = getelementptr inbounds i32, ptr %44, i64 %50
  %52 = load i32, ptr %51, align 4
  %53 = icmp slt i32 %48, 0
  %54 = icmp slt i32 %52, 0
  %or.cond = select i1 %53, i1 true, i1 %54
  br i1 %or.cond, label %63, label %55

55:                                               ; preds = %.lr.ph.split
  %56 = load ptr, ptr %18, align 8
  %57 = zext nneg i32 %48 to i64
  %58 = getelementptr inbounds nuw i32, ptr %56, i64 %57
  %59 = sub nsw i32 %52, %48
  %60 = tail call i32 @pg_wchar2mb_with_len(ptr noundef %58, ptr noundef nonnull %.fr, i32 noundef %59) #9
  %61 = tail call ptr @cstring_to_text_with_len(ptr noundef nonnull %.fr, i32 noundef %60) #9
  %62 = ptrtoint ptr %61 to i64
  br label %63

63:                                               ; preds = %.lr.ph.split, %55
  %.sink57 = phi i64 [ %62, %55 ], [ 0, %.lr.ph.split ]
  %.sink56 = phi i8 [ 0, %55 ], [ 1, %.lr.ph.split ]
  %64 = getelementptr inbounds nuw i64, ptr %7, i64 %indvars.iv
  store i64 %.sink57, ptr %64, align 8
  %65 = getelementptr inbounds nuw i8, ptr %9, i64 %indvars.iv
  store i8 %.sink56, ptr %65, align 1
  %indvars.iv.next = add nuw nsw i64 %indvars.iv, 1
  %66 = load i32, ptr %10, align 4
  %67 = sext i32 %66 to i64
  %68 = icmp slt i64 %indvars.iv.next, %67
  br i1 %68, label %.lr.ph.split, label %._crit_edge, !llvm.loop !13

._crit_edge:                                      ; preds = %63, %38, %1
  %.lcssa = phi i32 [ %11, %1 ], [ %41, %38 ], [ %66, %63 ]
  store i32 %.lcssa, ptr %2, align 4
  store i32 1, ptr %3, align 4
  %69 = call ptr @construct_md_array(ptr noundef %7, ptr noundef %9, i32 noundef 1, ptr noundef nonnull %2, ptr noundef nonnull %3, i32 noundef 25, i32 noundef -1, i1 noundef zeroext false, i8 noundef signext 105) #9
  call void @llvm.lifetime.end.p0(i64 4, ptr nonnull %3) #9
  call void @llvm.lifetime.end.p0(i64 4, ptr nonnull %2) #9
  ret ptr %69
}